; Function Attrs: nounwind uwtable
define internal range(i32 -21, 903) i32 @cvNlsLSetup(i32 noundef %0, ptr noundef writeonly captures(none) %1, ptr noundef %2) #0 {
  %4 = icmp eq ptr %2, null
  br i1 %4, label %5, label %6

5:                                                ; preds = %3
  tail call void (ptr, i32, i32, ptr, ptr, ptr, ...) @cvProcessError(ptr noundef null, i32 noundef -21, i32 noundef 260, ptr noundef nonnull @__func__.cvNlsLSetup, ptr noundef nonnull @.str, ptr noundef nonnull @.str.1) #3
  br label %38

6:                                                ; preds = %3
  %.not = icmp eq i32 %0, 0
  %.phi.trans.insert = getelementptr inbounds nuw i8, ptr %2, i64 1000
  br i1 %.not, label %._crit_edge, label %7

._crit_edge:                                      ; preds = %6
  %.pre = load i32, ptr %.phi.trans.insert, align 8, !tbaa !45
  br label %8

7:                                                ; preds = %6
  store i32 1, ptr %.phi.trans.insert, align 8, !tbaa !45
  br label %8

8:                                                ; preds = %._crit_edge, %7
  %9 = phi i32 [ %.pre, %._crit_edge ], [ 1, %7 ]
  %10 = getelementptr inbounds nuw i8, ptr %2, i64 1016
  %11 = load ptr, ptr %10, align 8, !tbaa !43
  %12 = getelementptr inbounds nuw i8, ptr %2, i64 208
  %13 = load ptr, ptr %12, align 8, !tbaa !29
  %14 = getelementptr inbounds nuw i8, ptr %2, i64 232
  %15 = load ptr, ptr %14, align 8, !tbaa !31
  %16 = getelementptr inbounds nuw i8, ptr %2, i64 1104
  %17 = getelementptr inbounds nuw i8, ptr %2, i64 240
  %18 = load ptr, ptr %17, align 8, !tbaa !46
  %19 = getelementptr inbounds nuw i8, ptr %2, i64 248
  %20 = load ptr, ptr %19, align 8, !tbaa !47
  %21 = getelementptr inbounds nuw i8, ptr %2, i64 256
  %22 = load ptr, ptr %21, align 8, !tbaa !48
  %23 = tail call i32 %11(ptr noundef nonnull %2, i32 noundef %9, ptr noundef %13, ptr noundef %15, ptr noundef nonnull %16, ptr noundef %18, ptr noundef %20, ptr noundef %22) #3
  %24 = getelementptr inbounds nuw i8, ptr %2, i64 904
  %25 = load i64, ptr %24, align 8, !tbaa !49
  %26 = add nsw i64 %25, 1
  store i64 %26, ptr %24, align 8, !tbaa !49
  %27 = load i32, ptr %16, align 8, !tbaa !50
  store i32 %27, ptr %1, align 4, !tbaa !37
  %28 = getelementptr inbounds nuw i8, ptr %2, i64 664
  store double 1.000000e+00, ptr %28, align 8, !tbaa !51
  %29 = getelementptr inbounds nuw i8, ptr %2, i64 648
  %30 = load double, ptr %29, align 8, !tbaa !35
  %31 = getelementptr inbounds nuw i8, ptr %2, i64 656
  store double %30, ptr %31, align 8, !tbaa !52
  %32 = getelementptr inbounds nuw i8, ptr %2, i64 672
  store double 1.000000e+00, ptr %32, align 8, !tbaa !38
  %33 = getelementptr inbounds nuw i8, ptr %2, i64 856
  %34 = load i64, ptr %33, align 8, !tbaa !53
  %35 = getelementptr inbounds nuw i8, ptr %2, i64 1072
  store i64 %34, ptr %35, align 8, !tbaa !54
  %36 = icmp slt i32 %23, 0
  br i1 %36, label %38, label %37

37:                                               ; preds = %8
  %.not26 = icmp eq i32 %23, 0
  %. = select i1 %.not26, i32 0, i32 902
  br label %38

38:                                               ; preds = %37, %8, %5
  %.0 = phi i32 [ -21, %5 ], [ -6, %8 ], [ %., %37 ]
  ret i32 %.0
}